; ModuleID = '42/1574.c'
source_filename = "42/1574.c"
target datalayout = "e-m:e-p270:32:32-p271:32:32-p272:64:64-i64:64-f80:128-n8:16:32:64-S128"
target triple = "x86_64-pc-linux-gnu"

@.str = private unnamed_addr constant [3 x i8] c"%d\00", align 1
@.str.1 = private unnamed_addr constant [4 x i8] c" %d\00", align 1

; Function Attrs: noinline nounwind uwtable
define dso_local i32 @main() #0 {
  %1 = alloca i32, align 4
  %2 = alloca i32, align 4
  %3 = alloca i32*, align 8
  %4 = alloca i32, align 4
  %5 = alloca i32, align 4
  %6 = alloca i32, align 4
  %7 = alloca i32, align 4
  %8 = alloca i32, align 4
  %9 = alloca i32, align 4
  store i32 0, i32* %1, align 4
  %10 = call i32 (i8*, ...) @__isoc99_scanf(i8* getelementptr inbounds ([3 x i8], [3 x i8]* @.str, i64 0, i64 0), i32* %2)
  %11 = load i32, i32* %2, align 4
  %12 = sext i32 %11 to i64
  %13 = mul i64 4, %12
  %14 = call noalias i8* @malloc(i64 %13) #3
  %15 = bitcast i8* %14 to i32*
  store i32* %15, i32** %3, align 8
  store i32 0, i32* %4, align 4
  br label %16

16:                                               ; preds = %26, %0
  %17 = load i32, i32* %4, align 4
  %18 = load i32, i32* %2, align 4
  %19 = icmp slt i32 %17, %18
  br i1 %19, label %20, label %29

20:                                               ; preds = %16
  %21 = load i32*, i32** %3, align 8
  %22 = load i32, i32* %4, align 4
  %23 = sext i32 %22 to i64
  %24 = getelementptr inbounds i32, i32* %21, i64 %23
  %25 = call i32 (i8*, ...) @__isoc99_scanf(i8* getelementptr inbounds ([3 x i8], [3 x i8]* @.str, i64 0, i64 0), i32* %24)
  br label %26

26:                                               ; preds = %20
  %27 = load i32, i32* %4, align 4
  %28 = add nsw i32 %27, 1
  store i32 %28, i32* %4, align 4
  br label %16

29:                                               ; preds = %16
  %30 = call i32 (i8*, ...) @__isoc99_scanf(i8* getelementptr inbounds ([3 x i8], [3 x i8]* @.str, i64 0, i64 0), i32* %5)
  store i32 0, i32* %6, align 4
  %31 = load i32*, i32** %3, align 8
  %32 = load i32, i32* %2, align 4
  %33 = sub nsw i32 %32, 1
  %34 = sext i32 %33 to i64
  %35 = getelementptr inbounds i32, i32* %31, i64 %34
  %36 = load i32, i32* %35, align 4
  %37 = load i32, i32* %5, align 4
  %38 = icmp eq i32 %36, %37
  br i1 %38, label %39, label %49

39:                                               ; preds = %29
  %40 = load i32, i32* %5, align 4
  %41 = add nsw i32 %40, 1
  %42 = load i32*, i32** %3, align 8
  %43 = load i32, i32* %2, align 4
  %44 = sub nsw i32 %43, 1
  %45 = sext i32 %44 to i64
  %46 = getelementptr inbounds i32, i32* %42, i64 %45
  store i32 %41, i32* %46, align 4
  %47 = load i32, i32* %6, align 4
  %48 = add nsw i32 %47, 1
  store i32 %48, i32* %6, align 4
  br label %49

49:                                               ; preds = %39, %29
  store i32 0, i32* %7, align 4
  br label %50

50:                                               ; preds = %88, %49
  %51 = load i32, i32* %7, align 4
  %52 = load i32, i32* %2, align 4
  %53 = icmp slt i32 %51, %52
  br i1 %53, label %54, label %91

54:                                               ; preds = %50
  %55 = load i32*, i32** %3, align 8
  %56 = load i32, i32* %7, align 4
  %57 = sext i32 %56 to i64
  %58 = getelementptr inbounds i32, i32* %55, i64 %57
  %59 = load i32, i32* %58, align 4
  %60 = load i32, i32* %5, align 4
  %61 = icmp eq i32 %59, %60
  br i1 %61, label %62, label %87

62:                                               ; preds = %54
  %63 = load i32, i32* %7, align 4
  store i32 %63, i32* %8, align 4
  br label %64

64:                                               ; preds = %69, %62
  %65 = load i32, i32* %8, align 4
  %66 = load i32, i32* %2, align 4
  %67 = sub nsw i32 %66, 1
  %68 = icmp slt i32 %65, %67
  br i1 %68, label %69, label %82

69:                                               ; preds = %64
  %70 = load i32*, i32** %3, align 8
  %71 = load i32, i32* %8, align 4
  %72 = add nsw i32 %71, 1
  %73 = sext i32 %72 to i64
  %74 = getelementptr inbounds i32, i32* %70, i64 %73
  %75 = load i32, i32* %74, align 4
  %76 = load i32*, i32** %3, align 8
  %77 = load i32, i32* %8, align 4
  %78 = sext i32 %77 to i64
  %79 = getelementptr inbounds i32, i32* %76, i64 %78
  store i32 %75, i32* %79, align 4
  %80 = load i32, i32* %8, align 4
  %81 = add nsw i32 %80, 1
  store i32 %81, i32* %8, align 4
  br label %64

82:                                               ; preds = %64
  %83 = load i32, i32* %6, align 4
  %84 = add nsw i32 %83, 1
  store i32 %84, i32* %6, align 4
  %85 = load i32, i32* %7, align 4
  %86 = sub nsw i32 %85, 1
  store i32 %86, i32* %7, align 4
  br label %87

87:                                               ; preds = %82, %54
  br label %88

88:                                               ; preds = %87
  %89 = load i32, i32* %7, align 4
  %90 = add nsw i32 %89, 1
  store i32 %90, i32* %7, align 4
  br label %50

91:                                               ; preds = %50
  store i32 0, i32* %9, align 4
  br label %92

92:                                               ; preds = %116, %91
  %93 = load i32, i32* %9, align 4
  %94 = load i32, i32* %2, align 4
  %95 = load i32, i32* %6, align 4
  %96 = sub nsw i32 %94, %95
  %97 = icmp slt i32 %93, %96
  br i1 %97, label %98, label %119

98:                                               ; preds = %92
  %99 = load i32, i32* %9, align 4
  %100 = icmp eq i32 %99, 0
  br i1 %100, label %101, label %108

101:                                              ; preds = %98
  %102 = load i32*, i32** %3, align 8
  %103 = load i32, i32* %9, align 4
  %104 = sext i32 %103 to i64
  %105 = getelementptr inbounds i32, i32* %102, i64 %104
  %106 = load i32, i32* %105, align 4
  %107 = call i32 (i8*, ...) @printf(i8* getelementptr inbounds ([3 x i8], [3 x i8]* @.str, i64 0, i64 0), i32 %106)
  br label %115

108:                                              ; preds = %98
  %109 = load i32*, i32** %3, align 8
  %110 = load i32, i32* %9, align 4
  %111 = sext i32 %110 to i64
  %112 = getelementptr inbounds i32, i32* %109, i64 %111
  %113 = load i32, i32* %112, align 4
  %114 = call i32 (i8*, ...) @printf(i8* getelementptr inbounds ([4 x i8], [4 x i8]* @.str.1, i64 0, i64 0), i32 %113)
  br label %115

115:                                              ; preds = %108, %101
  br label %116

116:                                              ; preds = %115
  %117 = load i32, i32* %9, align 4
  %118 = add nsw i32 %117, 1
  store i32 %118, i32* %9, align 4
  br label %92

119:                                              ; preds = %92
  ret i32 0
}

declare dso_local i32 @__isoc99_scanf(i8*, ...) #1

; Function Attrs: nounwind
declare dso_local noalias i8* @malloc(i64) #2

declare dso_local i32 @printf(i8*, ...) #1


!llvm.module.flags = !{!0}
!llvm.ident = !{!1}

!0 = !{i32 1, !"wchar_size", i32 4}
!1 = !{!"clang version 10.0.0-4ubuntu1 "}
